; Function Attrs: mustprogress uwtable
define noundef ptr @jsonnet_evaluate_file_stream(ptr noundef %0, ptr noundef %1, ptr nocapture noundef writeonly %2) local_unnamed_addr #6 personality ptr @__gxx_personality_v0 {
  %4 = invoke fastcc noundef ptr @_ZL25jsonnet_evaluate_file_auxP9JsonnetVmPKcPiN12_GLOBAL__N_18EvalKindE(ptr noundef %0, ptr noundef %1, ptr noundef %2, i32 noundef 2)
          to label %29 unwind label %5

5:                                                ; preds = %3
  %6 = landingpad { ptr, i32 }
          catch ptr @_ZTISt9bad_alloc
          catch ptr @_ZTISt9exception
  %7 = extractvalue { ptr, i32 } %6, 0
  %8 = extractvalue { ptr, i32 } %6, 1
  %9 = tail call i32 @llvm.eh.typeid.for(ptr nonnull @_ZTISt9bad_alloc) #30
  %10 = icmp eq i32 %8, %9
  br i1 %10, label %.unreachable, label %12

.unreachable:                                     ; preds = %5
  %11 = tail call ptr @__cxa_begin_catch(ptr %7) #30
  tail call fastcc void @_ZL12memory_panicv()
  unreachable

12:                                               ; preds = %5
  %13 = tail call i32 @llvm.eh.typeid.for(ptr nonnull @_ZTISt9exception) #30
  %14 = icmp eq i32 %8, %13
  br i1 %14, label %15, label %30

15:                                               ; preds = %12
  %16 = tail call ptr @__cxa_begin_catch(ptr %7) #30
  %17 = invoke noundef nonnull align 8 dereferenceable(8) ptr @_ZStlsISt11char_traitsIcEERSt13basic_ostreamIcT_ES5_PKc(ptr noundef nonnull align 8 dereferenceable(8) @_ZSt4cerr, ptr noundef nonnull @.str.11)
          to label %18 unwind label %27

18:                                               ; preds = %15
  %19 = load ptr, ptr %16, align 8
  %20 = getelementptr inbounds i8, ptr %19, i64 16
  %21 = load ptr, ptr %20, align 8
  %22 = tail call noundef ptr %21(ptr noundef nonnull align 8 dereferenceable(8) %16) #30
  %23 = invoke noundef nonnull align 8 dereferenceable(8) ptr @_ZStlsISt11char_traitsIcEERSt13basic_ostreamIcT_ES5_PKc(ptr noundef nonnull align 8 dereferenceable(8) %17, ptr noundef %22)
          to label %24 unwind label %27

24:                                               ; preds = %18
  %25 = invoke noundef nonnull align 8 dereferenceable(8) ptr @_ZNSolsEPFRSoS_E(ptr noundef nonnull align 8 dereferenceable(8) %23, ptr noundef nonnull @_ZSt4endlIcSt11char_traitsIcEERSt13basic_ostreamIT_T0_ES6_)
          to label %26 unwind label %27

26:                                               ; preds = %24
  tail call void @abort() #29
  unreachable

27:                                               ; preds = %24, %18, %15
  %28 = landingpad { ptr, i32 }
          cleanup
  invoke void @__cxa_end_catch()
          to label %30 unwind label %31

29:                                               ; preds = %3
  ret ptr %4

30:                                               ; preds = %27, %12
  %.merged = phi { ptr, i32 } [ %28, %27 ], [ %6, %12 ]
  resume { ptr, i32 } %.merged

31:                                               ; preds = %27
  %32 = landingpad { ptr, i32 }
          catch ptr null
  %33 = extractvalue { ptr, i32 } %32, 0
  tail call void @__clang_call_terminate(ptr %33) #29
  unreachable
}